; Function Attrs: mustprogress uwtable
define void @_ZN8nanobind6detail11tuple_checkEP7_objectm(ptr noundef readonly captures(none) %0, i64 noundef %1) local_unnamed_addr #15 {
  %.not5 = icmp eq i64 %1, 0
  br i1 %.not5, label %._crit_edge, label %.lr.ph

.lr.ph:                                           ; preds = %2
  %3 = getelementptr inbounds nuw i8, ptr %0, i64 24
  br label %6

4:                                                ; preds = %6
  %5 = add nuw i64 %.04, 1
  %exitcond.not = icmp eq i64 %5, %1
  br i1 %exitcond.not, label %._crit_edge, label %6, !llvm.loop !19

._crit_edge:                                      ; preds = %4, %2
  ret void

6:                                                ; preds = %.lr.ph, %4
  %.04 = phi i64 [ 0, %.lr.ph ], [ %5, %4 ]
  %7 = getelementptr inbounds nuw [1 x ptr], ptr %3, i64 0, i64 %.04
  %8 = load ptr, ptr %7, align 8
  %.not = icmp eq ptr %8, null
  br i1 %.not, label %9, label %4

9:                                                ; preds = %6
  tail call void @_ZN8nanobind6detail16raise_cast_errorEv() #28
  unreachable
}